target datalayout = "e-m:e-p270:32:32-p271:32:32-p272:64:64-i64:64-i128:128-f80:128-n8:16:32:64-S128"
target triple = "x86_64-pc-linux-gnu"

%struct.BlockRefTableBuffer = type { ptr, ptr, [65536 x i8], i32, i32, i32 }
%struct.BlockRefTableReader = type { %struct.BlockRefTableBuffer, ptr, ptr, ptr, i32, i32, ptr, [4096 x i16], i32 }

@.str = private unnamed_addr constant [56 x i8] c"file \22%s\22 has wrong magic number: expected %u, found %u\00", align 1

; Function Attrs: nounwind uwtable
define dso_local ptr @CreateBlockRefTableReader(ptr noundef %0, ptr noundef %1, ptr noundef %2, ptr noundef %3, ptr noundef %4) #0 {
  %6 = alloca ptr, align 8
  %7 = alloca ptr, align 8
  %8 = alloca ptr, align 8
  %9 = alloca ptr, align 8
  %10 = alloca ptr, align 8
  %11 = alloca ptr, align 8
  %12 = alloca i32, align 4
  store ptr %0, ptr %6, align 8
  store ptr %1, ptr %7, align 8
  store ptr %2, ptr %8, align 8
  store ptr %3, ptr %9, align 8
  store ptr %4, ptr %10, align 8
  call void @llvm.lifetime.start.p0(i64 8, ptr %11) #10
  call void @llvm.lifetime.start.p0(i64 4, ptr %12) #10
  %13 = call ptr @palloc0(i64 noundef 73808)
  store ptr %13, ptr %11, align 8
  %14 = load ptr, ptr %6, align 8
  %15 = load ptr, ptr %11, align 8
  %16 = getelementptr inbounds nuw %struct.BlockRefTableReader, ptr %15, i32 0, i32 0
  %17 = getelementptr inbounds nuw %struct.BlockRefTableBuffer, ptr %16, i32 0, i32 0
  store ptr %14, ptr %17, align 8
  %18 = load ptr, ptr %7, align 8
  %19 = load ptr, ptr %11, align 8
  %20 = getelementptr inbounds nuw %struct.BlockRefTableReader, ptr %19, i32 0, i32 0
  %21 = getelementptr inbounds nuw %struct.BlockRefTableBuffer, ptr %20, i32 0, i32 1
  store ptr %18, ptr %21, align 8
  %22 = load ptr, ptr %8, align 8
  %23 = load ptr, ptr %11, align 8
  %24 = getelementptr inbounds nuw %struct.BlockRefTableReader, ptr %23, i32 0, i32 1
  store ptr %22, ptr %24, align 8
  %25 = load ptr, ptr %9, align 8
  %26 = load ptr, ptr %11, align 8
  %27 = getelementptr inbounds nuw %struct.BlockRefTableReader, ptr %26, i32 0, i32 2
  store ptr %25, ptr %27, align 8
  %28 = load ptr, ptr %10, align 8
  %29 = load ptr, ptr %11, align 8
  %30 = getelementptr inbounds nuw %struct.BlockRefTableReader, ptr %29, i32 0, i32 3
  store ptr %28, ptr %30, align 8
  %31 = load ptr, ptr %11, align 8
  %32 = getelementptr inbounds nuw %struct.BlockRefTableReader, ptr %31, i32 0, i32 0
  %33 = getelementptr inbounds nuw %struct.BlockRefTableBuffer, ptr %32, i32 0, i32 5
  store i32 -1, ptr %33, align 8
  %34 = load ptr, ptr %11, align 8
  call void @BlockRefTableRead(ptr noundef %34, ptr noundef %12, i32 noundef 4)
  %35 = load i32, ptr %12, align 4
  %36 = icmp ne i32 %35, 1697321851
  br i1 %36, label %37, label %42

37:                                               ; preds = %5
  %38 = load ptr, ptr %9, align 8
  %39 = load ptr, ptr %10, align 8
  %40 = load ptr, ptr %8, align 8
  %41 = load i32, ptr %12, align 4
  call void (ptr, ptr, ...) %38(ptr noundef %39, ptr noundef @.str, ptr noundef %40, i32 noundef 1697321851, i32 noundef %41)
  br label %42

42:                                               ; preds = %37, %5
  %43 = load ptr, ptr %11, align 8
  call void @llvm.lifetime.end.p0(i64 4, ptr %12) #10
  call void @llvm.lifetime.end.p0(i64 8, ptr %11) #10
  ret ptr %43
}