; Function Attrs: nounwind uwtable
define dso_local noundef ptr @CreateBlockRefTableReader(ptr noundef %0, ptr noundef %1, ptr noundef %2, ptr noundef %3, ptr noundef %4) local_unnamed_addr #0 {
  %6 = alloca i32, align 4
  call void @llvm.lifetime.start.p0(i64 4, ptr nonnull %6) #14
  %7 = tail call ptr @palloc0(i64 noundef 73808) #14
  store ptr %0, ptr %7, align 8
  %8 = getelementptr inbounds nuw i8, ptr %7, i64 8
  store ptr %1, ptr %8, align 8
  %9 = getelementptr inbounds nuw i8, ptr %7, i64 65568
  store ptr %2, ptr %9, align 8
  %10 = getelementptr inbounds nuw i8, ptr %7, i64 65576
  store ptr %3, ptr %10, align 8
  %11 = getelementptr inbounds nuw i8, ptr %7, i64 65584
  store ptr %4, ptr %11, align 8
  %12 = getelementptr inbounds nuw i8, ptr %7, i64 65560
  store i32 -1, ptr %12, align 8
  call fastcc void @BlockRefTableRead(ptr noundef nonnull %7, ptr noundef nonnull %6, i32 noundef 4)
  %13 = load i32, ptr %6, align 4
  %.not = icmp eq i32 %13, 1697321851
  br i1 %.not, label %15, label %14

14:                                               ; preds = %5
  call void (ptr, ptr, ...) %3(ptr noundef %4, ptr noundef nonnull @.str, ptr noundef %2, i32 noundef 1697321851, i32 noundef %13) #14
  br label %15

15:                                               ; preds = %14, %5
  call void @llvm.lifetime.end.p0(i64 4, ptr nonnull %6) #14
  ret ptr %7
}